target datalayout = "e-m:e-p270:32:32-p271:32:32-p272:64:64-i64:64-i128:128-f80:128-n8:16:32:64-S128"
target triple = "x86_64-pc-linux-gnu"

%struct.Vec_Int_t_ = type { i32, i32, ptr }
%struct.Abc_Obj_t_ = type { ptr, ptr, i32, i32, %struct.Vec_Int_t_, %struct.Vec_Int_t_, %union.anon, %union.anon.0 }
%union.anon = type { ptr }
%union.anon.0 = type { ptr }
%struct.Dec_Graph_t_ = type { i32, i32, i32, i32, ptr, %struct.Dec_Edge_t_ }
%struct.Dec_Edge_t_ = type { i32 }
%struct.Dec_Node_t_ = type { %struct.Dec_Edge_t_, %struct.Dec_Edge_t_, %union.anon.1, i32 }
%union.anon.1 = type { ptr }

; Function Attrs: inlinehint nounwind uwtable
define internal void @Dec_GraphComplement(ptr noundef %0) #3 {
  %2 = alloca ptr, align 8
  store ptr %0, ptr %2, align 8, !tbaa !53
  %3 = load ptr, ptr %2, align 8, !tbaa !53
  %4 = getelementptr inbounds nuw %struct.Dec_Graph_t_, ptr %3, i32 0, i32 5
  %5 = load i32, ptr %4, align 8
  %6 = and i32 %5, 1
  %7 = xor i32 %6, 1
  %8 = load i32, ptr %4, align 8
  %9 = and i32 %7, 1
  %10 = and i32 %8, -2
  %11 = or i32 %10, %9
  store i32 %11, ptr %4, align 8
  ret void
}

; Function Attrs: inlinehint nounwind uwtable
define internal void @Dec_GraphSetRoot(ptr noundef %0, i32 %1) #3 {
  %3 = alloca %struct.Dec_Edge_t_, align 4
  %4 = alloca ptr, align 8
  %5 = getelementptr inbounds nuw %struct.Dec_Edge_t_, ptr %3, i32 0, i32 0
  store i32 %1, ptr %5, align 4
  store ptr %0, ptr %4, align 8, !tbaa !53
  %6 = load ptr, ptr %4, align 8, !tbaa !53
  %7 = getelementptr inbounds nuw %struct.Dec_Graph_t_, ptr %6, i32 0, i32 5
  call void @llvm.memcpy.p0.p0.i64(ptr align 8 %7, ptr align 4 %3, i64 4, i1 false), !tbaa.struct !124
  ret void
}

; Function Attrs: inlinehint nounwind uwtable
define internal i32 @Dec_EdgeCreate(i32 noundef %0, i32 noundef %1) #3 {
  %3 = alloca %struct.Dec_Edge_t_, align 4
  %4 = alloca i32, align 4
  %5 = alloca i32, align 4
  store i32 %0, ptr %4, align 4, !tbaa !8
  store i32 %1, ptr %5, align 4, !tbaa !8
  store i32 0, ptr %3, align 4
  %6 = load i32, ptr %5, align 4, !tbaa !8
  %7 = load i32, ptr %3, align 4
  %8 = and i32 %6, 1
  %9 = and i32 %7, -2
  %10 = or i32 %9, %8
  store i32 %10, ptr %3, align 4
  %11 = load i32, ptr %4, align 4, !tbaa !8
  %12 = load i32, ptr %3, align 4
  %13 = and i32 %11, 1073741823
  %14 = shl i32 %13, 1
  %15 = and i32 %12, -2147483647
  %16 = or i32 %15, %14
  store i32 %16, ptr %3, align 4
  %17 = getelementptr inbounds nuw %struct.Dec_Edge_t_, ptr %3, i32 0, i32 0
  %18 = load i32, ptr %17, align 4
  ret i32 %18
}

; Function Attrs: inlinehint nounwind uwtable
define internal ptr @Dec_GraphNode(ptr noundef %0, i32 noundef %1) #3 {
  %3 = alloca ptr, align 8
  %4 = alloca i32, align 4
  store ptr %0, ptr %3, align 8, !tbaa !53
  store i32 %1, ptr %4, align 4, !tbaa !8
  %5 = load ptr, ptr %3, align 8, !tbaa !53
  %6 = getelementptr inbounds nuw %struct.Dec_Graph_t_, ptr %5, i32 0, i32 4
  %7 = load ptr, ptr %6, align 8, !tbaa !104
  %8 = load i32, ptr %4, align 4, !tbaa !8
  %9 = sext i32 %8 to i64
  %10 = getelementptr inbounds %struct.Dec_Node_t_, ptr %7, i64 %9
  ret ptr %10
}

; Function Attrs: inlinehint nounwind uwtable
define internal ptr @Dec_GraphCreate(i32 noundef %0) #3 {
  %2 = alloca i32, align 4
  %3 = alloca ptr, align 8
  store i32 %0, ptr %2, align 4, !tbaa !8
  call void @llvm.lifetime.start.p0(i64 8, ptr %3) #11
  %4 = call noalias ptr @malloc(i64 noundef 32) #12
  store ptr %4, ptr %3, align 8, !tbaa !53
  %5 = load ptr, ptr %3, align 8, !tbaa !53
  call void @llvm.memset.p0.i64(ptr align 8 %5, i8 0, i64 32, i1 false)
  %6 = load i32, ptr %2, align 4, !tbaa !8
  %7 = load ptr, ptr %3, align 8, !tbaa !53
  %8 = getelementptr inbounds nuw %struct.Dec_Graph_t_, ptr %7, i32 0, i32 1
  store i32 %6, ptr %8, align 4, !tbaa !125
  %9 = load i32, ptr %2, align 4, !tbaa !8
  %10 = load ptr, ptr %3, align 8, !tbaa !53
  %11 = getelementptr inbounds nuw %struct.Dec_Graph_t_, ptr %10, i32 0, i32 2
  store i32 %9, ptr %11, align 8, !tbaa !126
  %12 = load i32, ptr %2, align 4, !tbaa !8
  %13 = mul nsw i32 2, %12
  %14 = add nsw i32 %13, 50
  %15 = load ptr, ptr %3, align 8, !tbaa !53
  %16 = getelementptr inbounds nuw %struct.Dec_Graph_t_, ptr %15, i32 0, i32 3
  store i32 %14, ptr %16, align 4, !tbaa !127
  %17 = load ptr, ptr %3, align 8, !tbaa !53
  %18 = getelementptr inbounds nuw %struct.Dec_Graph_t_, ptr %17, i32 0, i32 3
  %19 = load i32, ptr %18, align 4, !tbaa !127
  %20 = sext i32 %19 to i64
  %21 = mul i64 24, %20
  %22 = call noalias ptr @malloc(i64 noundef %21) #12
  %23 = load ptr, ptr %3, align 8, !tbaa !53
  %24 = getelementptr inbounds nuw %struct.Dec_Graph_t_, ptr %23, i32 0, i32 4
  store ptr %22, ptr %24, align 8, !tbaa !104
  %25 = load ptr, ptr %3, align 8, !tbaa !53
  %26 = getelementptr inbounds nuw %struct.Dec_Graph_t_, ptr %25, i32 0, i32 4
  %27 = load ptr, ptr %26, align 8, !tbaa !104
  %28 = load ptr, ptr %3, align 8, !tbaa !53
  %29 = getelementptr inbounds nuw %struct.Dec_Graph_t_, ptr %28, i32 0, i32 2
  %30 = load i32, ptr %29, align 8, !tbaa !126
  %31 = sext i32 %30 to i64
  %32 = mul i64 24, %31
  call void @llvm.memset.p0.i64(ptr align 8 %27, i8 0, i64 %32, i1 false)
  %33 = load ptr, ptr %3, align 8, !tbaa !53
  call void @llvm.lifetime.end.p0(i64 8, ptr %3) #11
  ret ptr %33
}

; Function Attrs: nounwind uwtable
define ptr @Abc_ManResubQuit0(ptr noundef %0, ptr noundef %1) #0 {
  %3 = alloca ptr, align 8
  %4 = alloca ptr, align 8
  %5 = alloca ptr, align 8
  %6 = alloca %struct.Dec_Edge_t_, align 4
  %7 = alloca %struct.Dec_Edge_t_, align 4
  store ptr %0, ptr %3, align 8, !tbaa !35
  store ptr %1, ptr %4, align 8, !tbaa !35
  call void @llvm.lifetime.start.p0(i64 8, ptr %5) #11
  call void @llvm.lifetime.start.p0(i64 4, ptr %6) #11
  %8 = call ptr @Dec_GraphCreate(i32 noundef 1)
  store ptr %8, ptr %5, align 8, !tbaa !53
  %9 = load ptr, ptr %4, align 8, !tbaa !35
  %10 = load ptr, ptr %5, align 8, !tbaa !53
  %11 = call ptr @Dec_GraphNode(ptr noundef %10, i32 noundef 0)
  %12 = getelementptr inbounds nuw %struct.Dec_Node_t_, ptr %11, i32 0, i32 2
  store ptr %9, ptr %12, align 8, !tbaa !37
  call void @llvm.lifetime.start.p0(i64 4, ptr %7) #11
  %13 = load ptr, ptr %4, align 8, !tbaa !35
  %14 = getelementptr inbounds nuw %struct.Abc_Obj_t_, ptr %13, i32 0, i32 3
  %15 = load i32, ptr %14, align 4
  %16 = lshr i32 %15, 7
  %17 = and i32 %16, 1
  %18 = call i32 @Dec_EdgeCreate(i32 noundef 0, i32 noundef %17)
  %19 = getelementptr inbounds nuw %struct.Dec_Edge_t_, ptr %7, i32 0, i32 0
  store i32 %18, ptr %19, align 4
  call void @llvm.memcpy.p0.p0.i64(ptr align 4 %6, ptr align 4 %7, i64 4, i1 false), !tbaa.struct !124
  call void @llvm.lifetime.end.p0(i64 4, ptr %7) #11
  %20 = load ptr, ptr %5, align 8, !tbaa !53
  %21 = getelementptr inbounds nuw %struct.Dec_Edge_t_, ptr %6, i32 0, i32 0
  %22 = load i32, ptr %21, align 4
  call void @Dec_GraphSetRoot(ptr noundef %20, i32 %22)
  %23 = load ptr, ptr %3, align 8, !tbaa !35
  %24 = getelementptr inbounds nuw %struct.Abc_Obj_t_, ptr %23, i32 0, i32 3
  %25 = load i32, ptr %24, align 4
  %26 = lshr i32 %25, 7
  %27 = and i32 %26, 1
  %28 = icmp ne i32 %27, 0
  br i1 %28, label %29, label %31

29:                                               ; preds = %2
  %30 = load ptr, ptr %5, align 8, !tbaa !53
  call void @Dec_GraphComplement(ptr noundef %30)
  br label %31

31:                                               ; preds = %29, %2
  %32 = load ptr, ptr %5, align 8, !tbaa !53
  call void @llvm.lifetime.end.p0(i64 4, ptr %6) #11
  call void @llvm.lifetime.end.p0(i64 8, ptr %5) #11
  ret ptr %32
}