; Function Attrs: mustprogress nofree nounwind willreturn memory(write, argmem: read, inaccessiblemem: readwrite) uwtable
define noalias noundef ptr @Abc_ManResubQuit0(ptr noundef readonly captures(none) %0, ptr noundef %1) local_unnamed_addr #5 {
  %calloc.i = tail call dereferenceable_or_null(32) ptr @calloc(i64 1, i64 32)
  %3 = getelementptr inbounds nuw i8, ptr %calloc.i, i64 4
  store i32 1, ptr %3, align 4, !tbaa !108
  %4 = getelementptr inbounds nuw i8, ptr %calloc.i, i64 8
  store i32 1, ptr %4, align 8, !tbaa !109
  %5 = getelementptr inbounds nuw i8, ptr %calloc.i, i64 12
  store i32 52, ptr %5, align 4, !tbaa !110
  %6 = tail call noalias dereferenceable_or_null(1248) ptr @malloc(i64 noundef 1248) #20
  %7 = getelementptr inbounds nuw i8, ptr %calloc.i, i64 16
  store ptr %6, ptr %7, align 8, !tbaa !111
  tail call void @llvm.memset.p0.i64(ptr noundef nonnull align 8 dereferenceable(24) %6, i8 0, i64 24, i1 false)
  %8 = getelementptr inbounds nuw i8, ptr %6, i64 8
  store ptr %1, ptr %8, align 8, !tbaa !57
  %9 = getelementptr inbounds nuw i8, ptr %1, i64 20
  %10 = load i32, ptr %9, align 4
  %11 = lshr i32 %10, 7
  %12 = and i32 %11, 1
  %13 = getelementptr inbounds nuw i8, ptr %calloc.i, i64 24
  store i32 %12, ptr %13, align 8, !tbaa !57
  %14 = getelementptr inbounds nuw i8, ptr %0, i64 20
  %15 = load i32, ptr %14, align 4
  %16 = and i32 %15, 128
  %.not = icmp eq i32 %16, 0
  br i1 %.not, label %19, label %17

17:                                               ; preds = %2
  %18 = xor i32 %12, 1
  store i32 %18, ptr %13, align 8
  br label %19

19:                                               ; preds = %17, %2
  ret ptr %calloc.i
}